target datalayout = "e-m:e-p270:32:32-p271:32:32-p272:64:64-i64:64-i128:128-f80:128-n8:16:32:64-S128"
target triple = "x86_64-pc-linux-gnu"

@ShowCiphers.ciphers = internal global [4096 x i8] zeroinitializer, align 16
@.str.170 = private unnamed_addr constant [4 x i8] c"%s\0A\00", align 1

; Function Attrs: nounwind uwtable
define internal void @ShowCiphers() #0 {
  %1 = alloca i32, align 4
  call void @llvm.lifetime.start.p0(i64 4, ptr %1) #13
  %2 = call i32 @wolfSSL_get_ciphers(ptr noundef @ShowCiphers.ciphers, i32 noundef 4096)
  store i32 %2, ptr %1, align 4, !tbaa !8
  %3 = load i32, ptr %1, align 4, !tbaa !8
  %4 = icmp eq i32 %3, 1
  br i1 %4, label %5, label %7

5:                                                ; preds = %0
  %6 = call i32 (ptr, ...) @printf(ptr noundef @.str.170, ptr noundef @ShowCiphers.ciphers)
  br label %7

7:                                                ; preds = %5, %0
  call void @llvm.lifetime.end.p0(i64 4, ptr %1) #13
  ret void
}