; Function Attrs: nounwind uwtable
define internal fastcc void @ShowCiphers() unnamed_addr #0 {
  %1 = tail call i32 @wolfSSL_get_ciphers(ptr noundef nonnull @ShowCiphers.ciphers, i32 noundef 4096) #20
  %2 = icmp eq i32 %1, 1
  br i1 %2, label %3, label %4

3:                                                ; preds = %0
  %puts = tail call i32 @puts(ptr nonnull dereferenceable(1) @ShowCiphers.ciphers)
  br label %4

4:                                                ; preds = %3, %0
  ret void
}